; Function Attrs: nounwind uwtable
define ptr @l_Lean_Compiler_LCNF_anyFVarM___rarg___lambda__1(ptr noundef %0, ptr noundef %1) local_unnamed_addr #0 {
  %3 = ptrtoint ptr %1 to i64
  %4 = and i64 %3, 1
  %.not.i33 = icmp eq i64 %4, 0
  br i1 %.not.i33, label %8, label %5

5:                                                ; preds = %2
  %6 = lshr i64 %3, 1
  %7 = trunc i64 %6 to i32
  br label %lean_obj_tag.exit

8:                                                ; preds = %2
  %9 = getelementptr i8, ptr %1, i64 4
  %.val.i = load i32, ptr %9, align 4
  %10 = lshr i32 %.val.i, 24
  br label %lean_obj_tag.exit

lean_obj_tag.exit:                                ; preds = %5, %8
  %.0.i = phi i32 [ %7, %5 ], [ %10, %8 ]
  %11 = icmp eq i32 %.0.i, 0
  %12 = getelementptr inbounds nuw i8, ptr %0, i64 8
  %13 = load ptr, ptr %12, align 8, !tbaa !4
  %14 = ptrtoint ptr %13 to i64
  %15 = and i64 %14, 1
  %.not47 = icmp eq i64 %15, 0
  br i1 %11, label %16, label %50

16:                                               ; preds = %lean_obj_tag.exit
  br i1 %.not47, label %17, label %lean_inc.exit23

17:                                               ; preds = %16
  %.val.i34 = load i32, ptr %13, align 4, !tbaa !8
  %18 = icmp sgt i32 %.val.i34, 0
  br i1 %18, label %19, label %21, !prof !13

19:                                               ; preds = %17
  %20 = add nuw i32 %.val.i34, 1
  store i32 %20, ptr %13, align 4, !tbaa !8
  br label %lean_inc.exit23

21:                                               ; preds = %17
  %.not.i35 = icmp eq i32 %.val.i34, 0
  br i1 %.not.i35, label %lean_inc.exit23, label %22

22:                                               ; preds = %21
  tail call void @lean_inc_ref_cold(ptr noundef nonnull %13) #4
  br label %lean_inc.exit23

lean_inc.exit23:                                  ; preds = %22, %21, %19, %16
  %23 = ptrtoint ptr %0 to i64
  %24 = and i64 %23, 1
  %.not48 = icmp eq i64 %24, 0
  br i1 %.not48, label %25, label %lean_dec.exit26

25:                                               ; preds = %lean_inc.exit23
  %26 = load i32, ptr %0, align 4, !tbaa !8
  %27 = icmp sgt i32 %26, 1
  br i1 %27, label %28, label %30, !prof !13

28:                                               ; preds = %25
  %29 = add nsw i32 %26, -1
  store i32 %29, ptr %0, align 4, !tbaa !8
  br label %lean_dec.exit26

30:                                               ; preds = %25
  %.not.i = icmp eq i32 %26, 0
  br i1 %.not.i, label %lean_dec.exit26, label %31

31:                                               ; preds = %30
  tail call void @lean_dec_ref_cold(ptr noundef nonnull %0) #4
  br label %lean_dec.exit26

lean_dec.exit26:                                  ; preds = %31, %30, %28, %lean_inc.exit23
  %32 = getelementptr inbounds nuw i8, ptr %13, i64 16
  %33 = load ptr, ptr %32, align 8, !tbaa !4
  %34 = ptrtoint ptr %33 to i64
  %35 = and i64 %34, 1
  %.not49 = icmp eq i64 %35, 0
  br i1 %.not49, label %36, label %lean_inc.exit22

36:                                               ; preds = %lean_dec.exit26
  %.val.i36 = load i32, ptr %33, align 4, !tbaa !8
  %37 = icmp sgt i32 %.val.i36, 0
  br i1 %37, label %38, label %40, !prof !13

38:                                               ; preds = %36
  %39 = add nuw i32 %.val.i36, 1
  store i32 %39, ptr %33, align 4, !tbaa !8
  br label %lean_inc.exit22

40:                                               ; preds = %36
  %.not.i37 = icmp eq i32 %.val.i36, 0
  br i1 %.not.i37, label %lean_inc.exit22, label %41

41:                                               ; preds = %40
  tail call void @lean_inc_ref_cold(ptr noundef nonnull %33) #4
  br label %lean_inc.exit22

lean_inc.exit22:                                  ; preds = %41, %40, %38, %lean_dec.exit26
  br i1 %.not47, label %42, label %lean_dec.exit25

42:                                               ; preds = %lean_inc.exit22
  %43 = load i32, ptr %13, align 4, !tbaa !8
  %44 = icmp sgt i32 %43, 1
  br i1 %44, label %45, label %47, !prof !13

45:                                               ; preds = %42
  %46 = add nsw i32 %43, -1
  store i32 %46, ptr %13, align 4, !tbaa !8
  br label %lean_dec.exit25

47:                                               ; preds = %42
  %.not.i27 = icmp eq i32 %43, 0
  br i1 %.not.i27, label %lean_dec.exit25, label %48

48:                                               ; preds = %47
  tail call void @lean_dec_ref_cold(ptr noundef nonnull %13) #4
  br label %lean_dec.exit25

lean_dec.exit25:                                  ; preds = %48, %47, %45, %lean_inc.exit22
  %49 = tail call ptr @lean_apply_2(ptr noundef %33, ptr noundef nonnull inttoptr (i64 1 to ptr), ptr noundef nonnull inttoptr (i64 3 to ptr)) #4
  br label %84

50:                                               ; preds = %lean_obj_tag.exit
  br i1 %.not47, label %51, label %lean_inc.exit21

51:                                               ; preds = %50
  %.val.i39 = load i32, ptr %13, align 4, !tbaa !8
  %52 = icmp sgt i32 %.val.i39, 0
  br i1 %52, label %53, label %55, !prof !13

53:                                               ; preds = %51
  %54 = add nuw i32 %.val.i39, 1
  store i32 %54, ptr %13, align 4, !tbaa !8
  br label %lean_inc.exit21

55:                                               ; preds = %51
  %.not.i40 = icmp eq i32 %.val.i39, 0
  br i1 %.not.i40, label %lean_inc.exit21, label %56

56:                                               ; preds = %55
  tail call void @lean_inc_ref_cold(ptr noundef nonnull %13) #4
  br label %lean_inc.exit21

lean_inc.exit21:                                  ; preds = %56, %55, %53, %50
  %57 = ptrtoint ptr %0 to i64
  %58 = and i64 %57, 1
  %.not45 = icmp eq i64 %58, 0
  br i1 %.not45, label %59, label %lean_dec.exit24

59:                                               ; preds = %lean_inc.exit21
  %60 = load i32, ptr %0, align 4, !tbaa !8
  %61 = icmp sgt i32 %60, 1
  br i1 %61, label %62, label %64, !prof !13

62:                                               ; preds = %59
  %63 = add nsw i32 %60, -1
  store i32 %63, ptr %0, align 4, !tbaa !8
  br label %lean_dec.exit24

64:                                               ; preds = %59
  %.not.i29 = icmp eq i32 %60, 0
  br i1 %.not.i29, label %lean_dec.exit24, label %65

65:                                               ; preds = %64
  tail call void @lean_dec_ref_cold(ptr noundef nonnull %0) #4
  br label %lean_dec.exit24

lean_dec.exit24:                                  ; preds = %65, %64, %62, %lean_inc.exit21
  %66 = getelementptr inbounds nuw i8, ptr %13, i64 16
  %67 = load ptr, ptr %66, align 8, !tbaa !4
  %68 = ptrtoint ptr %67 to i64
  %69 = and i64 %68, 1
  %.not46 = icmp eq i64 %69, 0
  br i1 %.not46, label %70, label %lean_inc.exit

70:                                               ; preds = %lean_dec.exit24
  %.val.i42 = load i32, ptr %67, align 4, !tbaa !8
  %71 = icmp sgt i32 %.val.i42, 0
  br i1 %71, label %72, label %74, !prof !13

72:                                               ; preds = %70
  %73 = add nuw i32 %.val.i42, 1
  store i32 %73, ptr %67, align 4, !tbaa !8
  br label %lean_inc.exit

74:                                               ; preds = %70
  %.not.i43 = icmp eq i32 %.val.i42, 0
  br i1 %.not.i43, label %lean_inc.exit, label %75

75:                                               ; preds = %74
  tail call void @lean_inc_ref_cold(ptr noundef nonnull %67) #4
  br label %lean_inc.exit

lean_inc.exit:                                    ; preds = %75, %74, %72, %lean_dec.exit24
  br i1 %.not47, label %76, label %lean_dec.exit

76:                                               ; preds = %lean_inc.exit
  %77 = load i32, ptr %13, align 4, !tbaa !8
  %78 = icmp sgt i32 %77, 1
  br i1 %78, label %79, label %81, !prof !13

79:                                               ; preds = %76
  %80 = add nsw i32 %77, -1
  store i32 %80, ptr %13, align 4, !tbaa !8
  br label %lean_dec.exit

81:                                               ; preds = %76
  %.not.i31 = icmp eq i32 %77, 0
  br i1 %.not.i31, label %lean_dec.exit, label %82

82:                                               ; preds = %81
  tail call void @lean_dec_ref_cold(ptr noundef nonnull %13) #4
  br label %lean_dec.exit

lean_dec.exit:                                    ; preds = %82, %81, %79, %lean_inc.exit
  %83 = tail call ptr @lean_apply_2(ptr noundef %67, ptr noundef nonnull inttoptr (i64 1 to ptr), ptr noundef nonnull inttoptr (i64 1 to ptr)) #4
  br label %84

84:                                               ; preds = %lean_dec.exit, %lean_dec.exit25
  %.0 = phi ptr [ %49, %lean_dec.exit25 ], [ %83, %lean_dec.exit ]
  ret ptr %.0
}